target datalayout = "e-m:e-p270:32:32-p271:32:32-p272:64:64-i64:64-i128:128-f80:128-n8:16:32:64-S128"
target triple = "x86_64-pc-linux-gnu"

%struct.nghttp2_stream = type { i32, %struct.nghttp2_pq_entry, i64, i64, i64, i64, ptr, ptr, ptr, i64, i32, i32, i32, i32, i32, i32, i32, i16, i32, i8, i8, i8, i8, i8, i8 }
%struct.nghttp2_pq_entry = type { i64 }

@root = external global %struct.nghttp2_stream, align 8

; Function Attrs: nounwind uwtable
define i32 @nghttp2_stream_get_state(ptr noundef %0) #0 {
  %2 = alloca i32, align 4
  %3 = alloca ptr, align 8
  store ptr %0, ptr %3, align 8, !tbaa !3
  %4 = load ptr, ptr %3, align 8, !tbaa !3
  %5 = icmp eq ptr %4, @root
  br i1 %5, label %6, label %7

6:                                                ; preds = %1
  store i32 1, ptr %2, align 4
  br label %62

7:                                                ; preds = %1
  %8 = load ptr, ptr %3, align 8, !tbaa !3
  %9 = getelementptr inbounds nuw %struct.nghttp2_stream, ptr %8, i32 0, i32 19
  %10 = load i8, ptr %9, align 4, !tbaa !18
  %11 = zext i8 %10 to i32
  %12 = and i32 %11, 2
  %13 = icmp ne i32 %12, 0
  br i1 %13, label %14, label %15

14:                                               ; preds = %7
  store i32 7, ptr %2, align 4
  br label %62

15:                                               ; preds = %7
  %16 = load ptr, ptr %3, align 8, !tbaa !3
  %17 = getelementptr inbounds nuw %struct.nghttp2_stream, ptr %16, i32 0, i32 19
  %18 = load i8, ptr %17, align 4, !tbaa !18
  %19 = zext i8 %18 to i32
  %20 = and i32 %19, 1
  %21 = icmp ne i32 %20, 0
  br i1 %21, label %22, label %39

22:                                               ; preds = %15
  %23 = load ptr, ptr %3, align 8, !tbaa !3
  %24 = getelementptr inbounds nuw %struct.nghttp2_stream, ptr %23, i32 0, i32 20
  %25 = load i8, ptr %24, align 1, !tbaa !20
  %26 = zext i8 %25 to i32
  %27 = and i32 %26, 1
  %28 = icmp ne i32 %27, 0
  br i1 %28, label %29, label %30

29:                                               ; preds = %22
  store i32 3, ptr %2, align 4
  br label %62

30:                                               ; preds = %22
  %31 = load ptr, ptr %3, align 8, !tbaa !3
  %32 = getelementptr inbounds nuw %struct.nghttp2_stream, ptr %31, i32 0, i32 20
  %33 = load i8, ptr %32, align 1, !tbaa !20
  %34 = zext i8 %33 to i32
  %35 = and i32 %34, 2
  %36 = icmp ne i32 %35, 0
  br i1 %36, label %37, label %38

37:                                               ; preds = %30
  store i32 4, ptr %2, align 4
  br label %62

38:                                               ; preds = %30
  br label %39

39:                                               ; preds = %38, %15
  %40 = load ptr, ptr %3, align 8, !tbaa !3
  %41 = getelementptr inbounds nuw %struct.nghttp2_stream, ptr %40, i32 0, i32 20
  %42 = load i8, ptr %41, align 1, !tbaa !20
  %43 = zext i8 %42 to i32
  %44 = and i32 %43, 1
  %45 = icmp ne i32 %44, 0
  br i1 %45, label %46, label %47

46:                                               ; preds = %39
  store i32 6, ptr %2, align 4
  br label %62

47:                                               ; preds = %39
  %48 = load ptr, ptr %3, align 8, !tbaa !3
  %49 = getelementptr inbounds nuw %struct.nghttp2_stream, ptr %48, i32 0, i32 20
  %50 = load i8, ptr %49, align 1, !tbaa !20
  %51 = zext i8 %50 to i32
  %52 = and i32 %51, 2
  %53 = icmp ne i32 %52, 0
  br i1 %53, label %54, label %55

54:                                               ; preds = %47
  store i32 5, ptr %2, align 4
  br label %62

55:                                               ; preds = %47
  %56 = load ptr, ptr %3, align 8, !tbaa !3
  %57 = getelementptr inbounds nuw %struct.nghttp2_stream, ptr %56, i32 0, i32 0
  %58 = load i32, ptr %57, align 8, !tbaa !19
  %59 = icmp eq i32 %58, 5
  br i1 %59, label %60, label %61

60:                                               ; preds = %55
  store i32 1, ptr %2, align 4
  br label %62

61:                                               ; preds = %55
  store i32 2, ptr %2, align 4
  br label %62

62:                                               ; preds = %61, %60, %54, %46, %37, %29, %14, %6
  %63 = load i32, ptr %2, align 4
  ret i32 %63
}