; Function Attrs: mustprogress nofree norecurse nosync nounwind willreturn memory(argmem: read) uwtable
define range(i32 1, 8) i32 @nghttp2_stream_get_state(ptr noundef readonly %0) local_unnamed_addr #5 {
  %2 = icmp eq ptr %0, @root
  br i1 %2, label %20, label %3

3:                                                ; preds = %1
  %4 = getelementptr inbounds nuw i8, ptr %0, i64 116
  %5 = load i8, ptr %4, align 4, !tbaa !14
  %6 = zext i8 %5 to i32
  %7 = and i32 %6, 2
  %.not = icmp eq i32 %7, 0
  br i1 %.not, label %8, label %20

8:                                                ; preds = %3
  %9 = and i32 %6, 1
  %.not9 = icmp eq i32 %9, 0
  %.phi.trans.insert = getelementptr inbounds nuw i8, ptr %0, i64 117
  %.pre = load i8, ptr %.phi.trans.insert, align 1, !tbaa !16
  %.pre14 = zext i8 %.pre to i32
  br i1 %.not9, label %._crit_edge, label %10

10:                                               ; preds = %8
  %11 = and i32 %.pre14, 1
  %.not10 = icmp eq i32 %11, 0
  br i1 %.not10, label %12, label %20

12:                                               ; preds = %10
  %13 = and i32 %.pre14, 2
  %.not11 = icmp eq i32 %13, 0
  br i1 %.not11, label %._crit_edge, label %20

._crit_edge:                                      ; preds = %8, %12
  %14 = and i32 %.pre14, 1
  %.not12 = icmp eq i32 %14, 0
  br i1 %.not12, label %15, label %20

15:                                               ; preds = %._crit_edge
  %16 = and i32 %.pre14, 2
  %.not13 = icmp eq i32 %16, 0
  br i1 %.not13, label %17, label %20

17:                                               ; preds = %15
  %18 = load i32, ptr %0, align 8, !tbaa !15
  %19 = icmp eq i32 %18, 5
  %. = select i1 %19, i32 1, i32 2
  br label %20

20:                                               ; preds = %17, %15, %._crit_edge, %12, %10, %3, %1
  %.0 = phi i32 [ 1, %1 ], [ 7, %3 ], [ 3, %10 ], [ 4, %12 ], [ 6, %._crit_edge ], [ 5, %15 ], [ %., %17 ]
  ret i32 %.0
}